; Function Attrs: nofree norecurse nosync nounwind sspstrong memory(argmem: readwrite) uwtable
define dso_local void @slow_bitmap_xor(ptr noundef writeonly captures(none) %dst, ptr noundef readonly captures(none) %bitmap1, ptr noundef readonly captures(none) %bitmap2, i64 noundef %bits) local_unnamed_addr #1 {
entry:
  %sub = add i64 %bits, 63
  %div5 = lshr i64 %sub, 6
  %cmp6.not = icmp ult i64 %sub, 64
  br i1 %cmp6.not, label %for.end, label %for.body

for.body:                                         ; preds = %entry, %for.body
  %k.07 = phi i64 [ %inc, %for.body ], [ 0, %entry ]
  %arrayidx = getelementptr i64, ptr %bitmap1, i64 %k.07
  %0 = load i64, ptr %arrayidx, align 8
  %arrayidx1 = getelementptr i64, ptr %bitmap2, i64 %k.07
  %1 = load i64, ptr %arrayidx1, align 8
  %xor = xor i64 %1, %0
  %arrayidx2 = getelementptr i64, ptr %dst, i64 %k.07
  store i64 %xor, ptr %arrayidx2, align 8
  %inc = add nuw nsw i64 %k.07, 1
  %exitcond.not = icmp eq i64 %inc, %div5
  br i1 %exitcond.not, label %for.end, label %for.body, !llvm.loop !12

for.end:                                          ; preds = %for.body, %entry
  ret void
}